target datalayout = "e-m:e-p270:32:32-p271:32:32-p272:64:64-i64:64-i128:128-f80:128-n8:16:32:64-S128"
target triple = "x86_64-pc-linux-gnu"

%struct.pmix_cpuset_t = type { ptr, ptr }

@.str = private unnamed_addr constant [6 x i8] c"hwloc\00", align 1

; Function Attrs: nounwind uwtable
define i32 @pmix_hwloc_copy_cpuset(ptr noundef %0, ptr noundef %1) #0 {
  %3 = alloca i32, align 4
  %4 = alloca ptr, align 8
  %5 = alloca ptr, align 8
  store ptr %0, ptr %4, align 8, !tbaa !3
  store ptr %1, ptr %5, align 8, !tbaa !3
  %6 = load ptr, ptr %5, align 8, !tbaa !3
  %7 = getelementptr inbounds nuw %struct.pmix_cpuset_t, ptr %6, i32 0, i32 0
  %8 = load ptr, ptr %7, align 8, !tbaa !19
  %9 = icmp eq ptr null, %8
  br i1 %9, label %16, label %10

10:                                               ; preds = %2
  %11 = load ptr, ptr %5, align 8, !tbaa !3
  %12 = getelementptr inbounds nuw %struct.pmix_cpuset_t, ptr %11, i32 0, i32 0
  %13 = load ptr, ptr %12, align 8, !tbaa !19
  %14 = call i32 @strncasecmp(ptr noundef %13, ptr noundef @.str, i64 noundef 5) #9
  %15 = icmp ne i32 0, %14
  br i1 %15, label %16, label %17

16:                                               ; preds = %10, %2
  store i32 -47, ptr %3, align 4
  br label %33

17:                                               ; preds = %10
  %18 = load ptr, ptr %5, align 8, !tbaa !3
  %19 = getelementptr inbounds nuw %struct.pmix_cpuset_t, ptr %18, i32 0, i32 1
  %20 = load ptr, ptr %19, align 8, !tbaa !21
  %21 = icmp eq ptr null, %20
  br i1 %21, label %22, label %23

22:                                               ; preds = %17
  store i32 -27, ptr %3, align 4
  br label %33

23:                                               ; preds = %17
  %24 = load ptr, ptr %5, align 8, !tbaa !3
  %25 = getelementptr inbounds nuw %struct.pmix_cpuset_t, ptr %24, i32 0, i32 1
  %26 = load ptr, ptr %25, align 8, !tbaa !21
  %27 = call noalias ptr @hwloc_bitmap_dup(ptr noundef %26)
  %28 = load ptr, ptr %4, align 8, !tbaa !3
  %29 = getelementptr inbounds nuw %struct.pmix_cpuset_t, ptr %28, i32 0, i32 1
  store ptr %27, ptr %29, align 8, !tbaa !21
  %30 = call noalias ptr @strdup(ptr noundef @.str) #8
  %31 = load ptr, ptr %4, align 8, !tbaa !3
  %32 = getelementptr inbounds nuw %struct.pmix_cpuset_t, ptr %31, i32 0, i32 0
  store ptr %30, ptr %32, align 8, !tbaa !19
  store i32 0, ptr %3, align 4
  br label %33

33:                                               ; preds = %23, %22, %16
  %34 = load i32, ptr %3, align 4
  ret i32 %34
}