; Function Attrs: nounwind uwtable
define range(i32 -47, 1) i32 @pmix_hwloc_copy_cpuset(ptr noundef writeonly captures(none) %0, ptr noundef readonly captures(none) %1) local_unnamed_addr #0 {
  %3 = load ptr, ptr %1, align 8, !tbaa !21
  %4 = icmp eq ptr %3, null
  br i1 %4, label %15, label %5

5:                                                ; preds = %2
  %6 = tail call i32 @strncasecmp(ptr noundef nonnull %3, ptr noundef nonnull @.str, i64 noundef 5) #8
  %.not = icmp eq i32 %6, 0
  br i1 %.not, label %7, label %15

7:                                                ; preds = %5
  %8 = getelementptr inbounds nuw i8, ptr %1, i64 8
  %9 = load ptr, ptr %8, align 8, !tbaa !23
  %10 = icmp eq ptr %9, null
  br i1 %10, label %15, label %11

11:                                               ; preds = %7
  %12 = tail call noalias ptr @hwloc_bitmap_dup(ptr noundef nonnull %9) #7
  %13 = getelementptr inbounds nuw i8, ptr %0, i64 8
  store ptr %12, ptr %13, align 8, !tbaa !23
  %14 = tail call noalias dereferenceable_or_null(6) ptr @strdup(ptr noundef nonnull @.str) #7
  store ptr %14, ptr %0, align 8, !tbaa !21
  br label %15

15:                                               ; preds = %7, %2, %5, %11
  %.0 = phi i32 [ 0, %11 ], [ -47, %5 ], [ -47, %2 ], [ -27, %7 ]
  ret i32 %.0
}